; Function Attrs: mustprogress uwtable
define void @_ZN10open_spiel11phantom_ttt15PhantomTTTState10UndoActionEil(ptr noundef nonnull align 8 dereferenceable(288) %0, i32 noundef %1, i64 noundef %2) unnamed_addr #3 align 2 personality ptr @__gxx_personality_v0 {
  %4 = alloca i64, align 8
  %5 = alloca i64, align 8
  %6 = alloca %"class.std::__cxx11::basic_string", align 8
  %7 = alloca i32, align 4
  %8 = getelementptr inbounds i8, ptr %0, i64 200
  %9 = load ptr, ptr %8, align 8
  %10 = getelementptr inbounds i8, ptr %9, i64 -8
  %11 = load i64, ptr %10, align 8
  store i64 %11, ptr %4, align 8
  store i64 %2, ptr %5, align 8
  %12 = icmp eq i64 %11, %2
  br i1 %12, label %17, label %13

13:                                               ; preds = %3
  store i32 277, ptr %7, align 4
  call void @_ZN10open_spiel8internal11SpielStrCatIJRA142_KcRA2_S2_iS6_RA18_S2_RA11_S2_RA4_S2_RlRA10_S2_SD_EEENSt7__cxx1112basic_stringIcSt11char_traitsIcESaIcEEEDpOT_(ptr dead_on_unwind nonnull writable sret(%"class.std::__cxx11::basic_string") align 8 %6, ptr noundef nonnull align 1 dereferenceable(142) @.str.12, ptr noundef nonnull align 1 dereferenceable(2) @.str.13, ptr noundef nonnull align 4 dereferenceable(4) %7, ptr noundef nonnull align 1 dereferenceable(2) @.str.14, ptr noundef nonnull align 1 dereferenceable(18) @.str.36, ptr noundef nonnull align 1 dereferenceable(11) @.str.37, ptr noundef nonnull align 1 dereferenceable(4) @.str.17, ptr noundef nonnull align 8 dereferenceable(8) %4, ptr noundef nonnull align 1 dereferenceable(10) @.str.38, ptr noundef nonnull align 8 dereferenceable(8) %5)
  invoke void @_ZN10open_spiel15SpielFatalErrorERKNSt7__cxx1112basic_stringIcSt11char_traitsIcESaIcEEE(ptr noundef nonnull align 8 dereferenceable(32) %6) #21
          to label %14 unwind label %15

14:                                               ; preds = %13
  unreachable

15:                                               ; preds = %13
  %16 = landingpad { ptr, i32 }
          cleanup
  call void @_ZNSt7__cxx1112basic_stringIcSt11char_traitsIcESaIcEED1Ev(ptr noundef nonnull align 8 dereferenceable(32) %6) #22
  resume { ptr, i32 } %16

17:                                               ; preds = %3
  %18 = getelementptr inbounds i8, ptr %0, i64 124
  %sext = shl i64 %2, 32
  %19 = ashr exact i64 %sext, 32
  %20 = getelementptr inbounds [9 x i32], ptr %18, i64 0, i64 %19
  %21 = load i32, ptr %20, align 4
  %22 = tail call noundef i32 @_ZN10open_spiel11tic_tac_toe13PlayerToStateEi(i32 noundef %1)
  %23 = icmp eq i32 %21, %22
  br i1 %23, label %24, label %26

24:                                               ; preds = %17
  %25 = getelementptr inbounds nuw i8, ptr %0, i64 64
  tail call void @_ZN10open_spiel11tic_tac_toe14TicTacToeState10UndoActionEil(ptr noundef nonnull align 8 dereferenceable(108) %25, i32 noundef %1, i64 noundef %2)
  br label %26

26:                                               ; preds = %24, %17
  %27 = icmp eq i32 %1, 0
  %.v = select i1 %27, i64 216, i64 252
  %28 = getelementptr inbounds nuw i8, ptr %0, i64 %.v
  %29 = getelementptr inbounds [9 x i32], ptr %28, i64 0, i64 %2
  store i32 0, ptr %29, align 4
  %30 = load ptr, ptr %8, align 8
  %31 = getelementptr inbounds i8, ptr %30, i64 -16
  store ptr %31, ptr %8, align 8
  %32 = getelementptr inbounds i8, ptr %0, i64 40
  %33 = load ptr, ptr %32, align 8
  %34 = getelementptr inbounds i8, ptr %33, i64 -16
  store ptr %34, ptr %32, align 8
  %35 = getelementptr inbounds nuw i8, ptr %0, i64 56
  %36 = load i32, ptr %35, align 8
  %37 = add nsw i32 %36, -1
  store i32 %37, ptr %35, align 8
  ret void
}